; Function Attrs: mustprogress nounwind uwtable
define hidden void @_ZN10HeapShared10init_rootsEP7oopDesc(ptr noundef %0) local_unnamed_addr #2 align 2 {
  %.not = icmp eq ptr %0, null
  br i1 %.not, label %8, label %2

2:                                                ; preds = %1
  %3 = tail call noundef ptr @_ZN8Universe9vm_globalEv() #20
  %4 = tail call noundef ptr @_ZN10OopStorage8allocateEv(ptr noundef nonnull align 8 dereferenceable(126) %3) #20
  %5 = icmp eq ptr %4, null
  br i1 %5, label %6, label %_ZN9OopHandleC2EP10OopStorageP7oopDesc.exit

6:                                                ; preds = %2
  tail call void (ptr, i32, i64, i32, ptr, ...) @_Z23report_vm_out_of_memoryPKcim11VMErrorTypeS0_z(ptr noundef nonnull @.str.104, i32 noundef 45, i64 noundef 8, i32 noundef -536870911, ptr noundef nonnull @.str.105) #21
  unreachable

_ZN9OopHandleC2EP10OopStorageP7oopDesc.exit:      ; preds = %2
  %7 = load ptr, ptr @_ZN14AccessInternal15RuntimeDispatchILm548932EP7oopDescLNS_11BarrierTypeE0EE11_store_funcE, align 8
  tail call void %7(ptr noundef nonnull %4, ptr noundef nonnull %0) #20
  store ptr %4, ptr @_ZN10HeapShared6_rootsE, align 8
  br label %8

8:                                                ; preds = %_ZN9OopHandleC2EP10OopStorageP7oopDesc.exit, %1
  ret void
}